; Function Attrs: nounwind uwtable
define ptr @l_Lean_Meta_MatcherApp_transform___rarg___lambda__11___boxed(ptr noundef %0, ptr noundef %1, ptr noundef %2, ptr noundef %3, ptr noundef %4, ptr noundef %5) #1 {
  tail call void @lean_inc_heartbeat() #4
  %7 = tail call noalias ptr @mi_malloc_small(i64 noundef 32) #4
  %8 = icmp eq ptr %7, null
  br i1 %8, label %9, label %l_Lean_Meta_MatcherApp_transform___rarg___lambda__11.exit

9:                                                ; preds = %6
  tail call void @lean_internal_panic_out_of_memory() #5
  unreachable

l_Lean_Meta_MatcherApp_transform___rarg___lambda__11.exit: ; preds = %6
  %10 = getelementptr inbounds nuw i8, ptr %7, i64 4
  store i32 1, ptr %7, align 4, !tbaa !8
  store i32 -184549344, ptr %10, align 4
  %11 = getelementptr inbounds nuw i8, ptr %7, i64 8
  store ptr @l_Lean_Meta_check, ptr %11, align 8, !tbaa !4
  %12 = getelementptr inbounds nuw i8, ptr %7, i64 16
  store i16 6, ptr %12, align 8, !tbaa !15
  %13 = getelementptr inbounds nuw i8, ptr %7, i64 18
  store i16 1, ptr %13, align 2, !tbaa !15
  %14 = getelementptr inbounds nuw i8, ptr %7, i64 24
  store ptr %0, ptr %14, align 8, !tbaa !4
  %15 = tail call ptr @lean_apply_2(ptr noundef %1, ptr noundef nonnull inttoptr (i64 1 to ptr), ptr noundef nonnull %7) #4
  %16 = tail call ptr @lean_apply_1(ptr noundef %2, ptr noundef %3) #4
  %17 = tail call ptr @lean_apply_4(ptr noundef %4, ptr noundef nonnull inttoptr (i64 1 to ptr), ptr noundef nonnull inttoptr (i64 1 to ptr), ptr noundef %15, ptr noundef %16) #4
  %18 = ptrtoint ptr %5 to i64
  %19 = and i64 %18, 1
  %.not = icmp eq i64 %19, 0
  br i1 %.not, label %20, label %lean_dec.exit

20:                                               ; preds = %l_Lean_Meta_MatcherApp_transform___rarg___lambda__11.exit
  %21 = load i32, ptr %5, align 4, !tbaa !8
  %22 = icmp sgt i32 %21, 1
  br i1 %22, label %23, label %25, !prof !11

23:                                               ; preds = %20
  %24 = add nsw i32 %21, -1
  store i32 %24, ptr %5, align 4, !tbaa !8
  br label %lean_dec.exit

25:                                               ; preds = %20
  %.not.i = icmp eq i32 %21, 0
  br i1 %.not.i, label %lean_dec.exit, label %26

26:                                               ; preds = %25
  tail call void @lean_dec_ref_cold(ptr noundef nonnull %5) #4
  br label %lean_dec.exit

lean_dec.exit:                                    ; preds = %26, %25, %23, %l_Lean_Meta_MatcherApp_transform___rarg___lambda__11.exit
  ret ptr %17
}